; Function Attrs: mustprogress nofree norecurse nosync nounwind willreturn memory(argmem: readwrite) uwtable
define hidden range(i32 0, 2) i32 @CBS_skip(ptr noundef captures(none) %0, i64 noundef %1) local_unnamed_addr #1 {
  %3 = getelementptr inbounds nuw i8, ptr %0, i64 8
  %4 = load i64, ptr %3, align 8, !tbaa !13
  %5 = icmp ult i64 %4, %1
  br i1 %5, label %cbs_get.exit, label %6

6:                                                ; preds = %2
  %7 = load ptr, ptr %0, align 8, !tbaa !6
  %8 = getelementptr inbounds nuw i8, ptr %7, i64 %1
  store ptr %8, ptr %0, align 8, !tbaa !6
  %9 = sub nuw i64 %4, %1
  store i64 %9, ptr %3, align 8, !tbaa !13
  br label %cbs_get.exit

cbs_get.exit:                                     ; preds = %2, %6
  %.0.i = phi i32 [ 1, %6 ], [ 0, %2 ]
  ret i32 %.0.i
}